target datalayout = "e-m:e-p270:32:32-p271:32:32-p272:64:64-i64:64-i128:128-f80:128-n8:16:32:64-S128"
target triple = "x86_64-pc-linux-gnu"

%struct._ir_insn = type { %struct.anon, %union.anon.5 }
%struct.anon = type { %union.anon, %union.anon.4 }
%union.anon = type { i32 }
%union.anon.4 = type { i32 }
%union.anon.5 = type { %union._ir_val }
%union._ir_val = type { double }
%struct._ir_ctx = type { ptr, i32, i32, i32, i32, i32, i32, i32, i32, i32, i32, %struct._ir_insn, ptr, ptr, ptr, i32, i32, i32, ptr, ptr, ptr, ptr, ptr, i32, i32, i64, i32, i32, i32, i64, i32, i32, i32, i32, ptr, ptr, ptr, ptr, ptr, ptr, %union.anon.13, ptr, i32, i32, i32, i64, i32, i32, i32, ptr, ptr, ptr, ptr, %struct._ir_strtab, [61 x i32], [14 x i32] }
%union.anon.13 = type { ptr }
%struct._ir_strtab = type { ptr, i32, i32, i32, i32, ptr, i32, i32 }

; Function Attrs: nounwind uwtable
define hidden i32 @ir_str(ptr noundef %0, ptr noundef %1) #0 {
  %3 = alloca ptr, align 8
  %4 = alloca ptr, align 8
  %5 = alloca i64, align 8
  store ptr %0, ptr %3, align 8
  store ptr %1, ptr %4, align 8
  %6 = load ptr, ptr %3, align 8
  %7 = getelementptr inbounds %struct._ir_ctx, ptr %6, i32 0, i32 53
  %8 = getelementptr inbounds %struct._ir_strtab, ptr %7, i32 0, i32 0
  %9 = load ptr, ptr %8, align 8
  %10 = icmp ne ptr %9, null
  br i1 %10, label %14, label %11

11:                                               ; preds = %2
  %12 = load ptr, ptr %3, align 8
  %13 = getelementptr inbounds %struct._ir_ctx, ptr %12, i32 0, i32 53
  call void @ir_strtab_init(ptr noundef %13, i32 noundef 64, i32 noundef 4096)
  br label %14

14:                                               ; preds = %11, %2
  %15 = load ptr, ptr %4, align 8
  %16 = call i64 @strlen(ptr noundef %15) #13
  store i64 %16, ptr %5, align 8
  %17 = load ptr, ptr %3, align 8
  %18 = getelementptr inbounds %struct._ir_ctx, ptr %17, i32 0, i32 53
  %19 = load ptr, ptr %4, align 8
  %20 = load i64, ptr %5, align 8
  %21 = trunc i64 %20 to i32
  %22 = load ptr, ptr %3, align 8
  %23 = getelementptr inbounds %struct._ir_ctx, ptr %22, i32 0, i32 53
  %24 = getelementptr inbounds %struct._ir_strtab, ptr %23, i32 0, i32 3
  %25 = load i32, ptr %24, align 8
  %26 = add i32 %25, 1
  %27 = call i32 @ir_strtab_lookup(ptr noundef %18, ptr noundef %19, i32 noundef %21, i32 noundef %26)
  ret i32 %27
}