; Function Attrs: nounwind uwtable
define hidden i32 @ir_str(ptr noundef %0, ptr noundef %1) local_unnamed_addr #0 {
  %3 = getelementptr inbounds i8, ptr %0, i64 336
  %4 = load ptr, ptr %3, align 8
  %.not = icmp eq ptr %4, null
  br i1 %.not, label %5, label %6

5:                                                ; preds = %2
  tail call void @ir_strtab_init(ptr noundef nonnull %3, i32 noundef 64, i32 noundef 4096) #20
  br label %6

6:                                                ; preds = %5, %2
  %7 = tail call i64 @strlen(ptr noundef nonnull dereferenceable(1) %1) #25
  %8 = trunc i64 %7 to i32
  %9 = getelementptr inbounds i8, ptr %0, i64 352
  %10 = load i32, ptr %9, align 8
  %11 = add i32 %10, 1
  %12 = tail call i32 @ir_strtab_lookup(ptr noundef nonnull %3, ptr noundef %1, i32 noundef %8, i32 noundef %11) #20
  ret i32 %12
}